Certificate:
    Data:
        Version: 3 (0x2)
        Serial Number: 1 (0x1)
    Signature Algorithm: sha256WithRSAEncryption
        Issuer: C=US, ST=Unset, L=Unset, O=Unset, CN=www.example.com
        Validity
            Not Before: Apr  9 09:47:17 2015 GMT
            Not After : Apr  6 09:47:17 2025 GMT
        Subject: C=US, ST=Unset, O=Unset, CN=www.example.com
        Subject Public Key Info:
            Public Key Algorithm: rsaEncryption
                Public-Key: (2048 bit)
                Modulus:
                    00:cd:22:20:5f:b7:10:2c:94:b0:c5:c8:bc:d9:8b:
                    12:3c:c2:70:4e:e8:69:af:fa:e4:46:a2:52:f5:e3:
                    4d:23:dd:2c:b6:ea:15:5a:15:05:f0:1e:33:00:00:
                    69:c2:3c:82:f7:f5:a3:86:ae:82:04:8f:7a:e7:59:
                    e5:b6:5e:42:b6:89:79:80:e0:c4:a5:32:7e:49:f4:
                    95:e7:46:1a:4d:11:3f:74:ca:d7:bf:d0:c2:2e:0f:
                    96:1e:87:ad:75:a7:26:ab:a4:16:96:23:08:b7:3f:
                    d2:30:a6:1f:e7:96:57:d2:10:a8:f6:90:b2:5e:52:
                    7c:c0:e6:9a:41:1a:3e:3c:12:8d:c3:39:ca:65:4e:
                    6a:99:3f:77:d3:fe:a1:8c:f6:f0:07:a1:89:62:8a:
                    55:f9:ad:f7:8c:ff:40:89:00:44:b5:97:75:69:ae:
                    a0:47:1e:29:8a:c8:2c:3c:ef:3b:5b:b9:77:5b:e1:
                    84:4d:c0:8e:bb:6d:d6:ef:7f:03:04:31:05:40:47:
                    f3:36:67:15:29:22:83:14:b4:8f:8d:96:c2:fb:27:
                    3b:0f:94:c0:f2:6c:0c:d2:6b:b7:5c:9a:18:9a:9a:
                    ab:25:35:2f:18:1e:0e:ad:0f:4a:dd:06:c9:ab:b8:
                    48:d6:e0:2a:81:61:96:d2:19:3d:30:0f:d1:c7:09:
                    89:1b
                Exponent: 65537 (0x10001)
        X509v3 extensions:
            X509v3 Basic Constraints: 
                CA:FALSE
            X509v3 Subject Key Identifier: 
                97:E6:94:E4:B1:4A:25:8B:27:07:A4:9B:72:F4:BE:91:64:53:8F:55
            X509v3 Authority Key Identifier: 
                keyid:90:4F:39:DE:AF:2D:D8:C2:28:B4:80:49:C3:D3:6C:8B:61:F3:56:FB

    Signature Algorithm: sha256WithRSAEncryption
         5e:d8:f9:a1:0b:fb:60:4e:f0:ac:b0:4c:55:e6:36:9c:39:3e:
         42:cc:9c:d1:74:16:dd:ff:1d:e2:25:b5:df:4c:7f:18:95:76:
         8b:ea:92:f4:5f:e3:9d:fc:74:20:e4:5a:5d:70:70:81:42:e9:
         3e:26:cc:c4:98:8b:ce:0d:ec:ba:fa:41:a1:8c:fd:1a:cf:dd:
         d8:e4:2d:f6:50:47:d4:d5:90:c7:d0:af:a8:2b:8b:86:60:42:
         d8:2d:9f:06:e6:bb:43:00:aa:f6:be:3f:fe:42:ce:00:4b:67:
         b5:42:b5:f7:55:ea:47:7d:f9:52:ca:24:ae:d2:a0:71:ad:2d:
         d1:81:5e:1c:8d:b2:70:fe:50:77:08:4a:b2:74:85:15:e0:cc:
         46:fa:d4:39:19:98:98:3a:13:f7:6b:fe:93:04:bf:11:04:15:
         67:9e:7b:7f:e9:a4:ba:e3:77:e4:41:68:b3:4a:6d:f3:05:66:
         6e:6d:dd:3a:4d:d9:e5:34:11:3d:ef:02:ae:5e:2a:5a:8c:7c:
         15:64:bb:65:d8:1b:b2:eb:a4:e5:5e:4c:d2:e6:65:e6:28:cd:
         e2:ad:5d:a6:45:c3:b8:c0:db:1d:16:1d:f8:4f:6d:84:8e:e6:
         e4:9f:3b:d4:78:19:47:b1:6f:7b:78:ab:5d:27:18:ca:6d:ef:
         a4:18:11:9a
-----BEGIN CERTIFICATE-----
MIIDZjCCAk6gAwIBAgIBATANBgkqhkiG9w0BAQsFADBXMQswCQYDVQQGEwJVUzEO
MAwGA1UECAwFVW5zZXQxDjAMBgNVBAcMBVVuc2V0MQ4wDAYDVQQKDAVVbnNldDEY
MBYGA1UEAwwPd3d3LmV4YW1wbGUuY29tMB4XDTE1MDQwOTA5NDcxN1oXDTI1MDQw
NjA5NDcxN1owRzELMAkGA1UEBhMCVVMxDjAMBgNVBAgMBVVuc2V0MQ4wDAYDVQQK
DAVVbnNldDEYMBYGA1UEAwwPd3d3LmV4YW1wbGUuY29tMIIBIjANBgkqhkiG9w0B
AQEFAAOCAQ8AMIIBCgKCAQEAzSIgX7cQLJSwxci82YsSPMJwTuhpr/rkRqJS9eNN
I90stuoVWhUF8B4zAABpwjyC9/Wjhq6CBI9651nltl5Ctol5gODEpTJ+SfSV50Ya
TRE/dMrXv9DCLg+WHoetdacmq6QWliMItz/SMKYf55ZX0hCo9pCyXlJ8wOaaQRo+
PBKNwznKZU5qmT930/6hjPbwB6GJYopV+a33jP9AiQBEtZd1aa6gRx4pisgsPO87
W7l3W+GETcCOu23W738DBDEFQEfzNmcVKSKDFLSPjZbC+yc7D5TA8mwM0mu3XJoY
mpqrJTUvGB4OrQ9K3QbJq7hI1uAqgWGW0hk9MA/RxwmJGwIDAQABo00wSzAJBgNV
HRMEAjAAMB0GA1UdDgQWBBSX5pTksUoliycHpJty9L6RZFOPVTAfBgNVHSMEGDAW
gBSQTznery3Ywii0gEnD02yLYfNW+zANBgkqhkiG9w0BAQsFAAOCAQEAXtj5oQv7
YE7wrLBMVeY2nDk+Qsyc0XQW3f8d4iW130x/GJV2i+qS9F/jnfx0IORaXXBwgULp
PibMxJiLzg3suvpBoYz9Gs/d2OQt9lBH1NWQx9CvqCuLhmBC2C2fBua7QwCq9r4/
/kLOAEtntUK191XqR335UsokrtKgca0t0YFeHI2ycP5QdwhKsnSFFeDMRvrUORmY
mDoT92v+kwS/EQQVZ557f+mkuuN35EFos0pt8wVmbm3dOk3Z5TQRPe8Crl4qWox8
FWS7Zdgbsuuk5V5M0uZl5ijN4q1dpkXDuMDbHRYd+E9thI7m5J871HgZR7Fve3ir
XScYym3vpBgRmg==
-----END CERTIFICATE-----
